; Function Attrs: mustprogress nounwind uwtable
define dso_local void @_ZN5clang5Scope4InitEPS0_j(ptr noundef nonnull align 8 dereferenceable(536) initializes((0, 14), (16, 22), (24, 80)) %0, ptr noundef %1, i32 noundef %2) local_unnamed_addr #1 align 2 {
  tail call void @_ZN5clang5Scope8setFlagsEPS0_j(ptr noundef nonnull align 8 dereferenceable(536) %0, ptr noundef %1, i32 noundef %2)
  %4 = getelementptr inbounds nuw i8, ptr %0, i64 80
  %5 = getelementptr inbounds nuw i8, ptr %0, i64 88
  %6 = load ptr, ptr %5, align 8
  %7 = load ptr, ptr %4, align 8
  %8 = icmp eq ptr %6, %7
  br i1 %8, label %24, label %9

9:                                                ; preds = %3
  %10 = getelementptr inbounds nuw i8, ptr %0, i64 100
  %11 = load i32, ptr %10, align 4
  %12 = getelementptr inbounds nuw i8, ptr %0, i64 104
  %13 = load i32, ptr %12, align 8
  %14 = sub i32 %11, %13
  %15 = shl i32 %14, 2
  %16 = getelementptr inbounds nuw i8, ptr %0, i64 96
  %17 = load i32, ptr %16, align 8
  %18 = icmp ult i32 %15, %17
  %19 = icmp ugt i32 %17, 32
  %or.cond.i = and i1 %19, %18
  br i1 %or.cond.i, label %20, label %21

20:                                               ; preds = %9
  tail call void @_ZN4llvm19SmallPtrSetImplBase16shrink_and_clearEv(ptr noundef nonnull align 8 dereferenceable(28) %4) #8
  br label %_ZN4llvm19SmallPtrSetImplBase5clearEv.exit

21:                                               ; preds = %9
  %22 = zext i32 %17 to i64
  %23 = shl nuw nsw i64 %22, 3
  tail call void @llvm.memset.p0.i64(ptr align 8 %6, i8 -1, i64 %23, i1 false)
  br label %24

24:                                               ; preds = %21, %3
  %25 = getelementptr inbounds nuw i8, ptr %0, i64 100
  store i32 0, ptr %25, align 4
  %26 = getelementptr inbounds nuw i8, ptr %0, i64 104
  store i32 0, ptr %26, align 8
  br label %_ZN4llvm19SmallPtrSetImplBase5clearEv.exit

_ZN4llvm19SmallPtrSetImplBase5clearEv.exit:       ; preds = %20, %24
  %27 = getelementptr inbounds nuw i8, ptr %0, i64 376
  %28 = tail call noundef i64 @_ZNK4llvm15SmallVectorBaseIjE4sizeEv(ptr noundef nonnull align 8 dereferenceable(16) %27) #8
  %29 = getelementptr inbounds nuw i8, ptr %0, i64 384
  store i32 0, ptr %29, align 8
  %30 = getelementptr inbounds nuw i8, ptr %0, i64 368
  store ptr null, ptr %30, align 8
  %31 = getelementptr inbounds nuw i8, ptr %0, i64 408
  %32 = load ptr, ptr %31, align 8
  %33 = getelementptr inbounds nuw i8, ptr %32, i64 196
  %34 = load i32, ptr %33, align 4
  %35 = getelementptr inbounds nuw i8, ptr %0, i64 416
  store i32 %34, ptr %35, align 8
  %36 = getelementptr inbounds nuw i8, ptr %32, i64 200
  %37 = load i32, ptr %36, align 8
  %38 = getelementptr inbounds nuw i8, ptr %0, i64 420
  store i32 %37, ptr %38, align 4
  %39 = getelementptr inbounds nuw i8, ptr %0, i64 432
  %40 = load i8, ptr %39, align 8
  %41 = trunc i8 %40 to i1
  br i1 %41, label %42, label %_ZNSt8optionalIPN5clang7VarDeclEEaSESt9nullopt_t.exit

42:                                               ; preds = %_ZN4llvm19SmallPtrSetImplBase5clearEv.exit
  store i8 0, ptr %39, align 8
  br label %_ZNSt8optionalIPN5clang7VarDeclEEaSESt9nullopt_t.exit

_ZNSt8optionalIPN5clang7VarDeclEEaSESt9nullopt_t.exit: ; preds = %_ZN4llvm19SmallPtrSetImplBase5clearEv.exit, %42
  ret void
}